; Function Attrs: mustprogress uwtable
define hidden noundef range(i32 0, -2147483648) i32 @_ZNK5ceres8internal7Program34MaxScratchDoublesNeededForEvaluateEv(ptr noundef nonnull readonly align 8 captures(none) dereferenceable(56) %0) local_unnamed_addr #6 align 2 {
  %2 = getelementptr inbounds nuw i8, ptr %0, i64 24
  %3 = load ptr, ptr %2, align 8, !tbaa !117
  %4 = getelementptr inbounds nuw i8, ptr %0, i64 32
  %5 = load ptr, ptr %4, align 8, !tbaa !117
  %.not11 = icmp eq ptr %3, %5
  br i1 %.not11, label %._crit_edge, label %.lr.ph

._crit_edge:                                      ; preds = %.lr.ph, %1
  %.0.lcssa = phi i32 [ 0, %1 ], [ %.sroa.speculated, %.lr.ph ]
  ret i32 %.0.lcssa

.lr.ph:                                           ; preds = %1, %.lr.ph
  %.013 = phi i32 [ %.sroa.speculated, %.lr.ph ], [ 0, %1 ]
  %.sroa.05.012 = phi ptr [ %8, %.lr.ph ], [ %3, %1 ]
  %6 = load ptr, ptr %.sroa.05.012, align 8, !tbaa !118
  %7 = tail call noundef i32 @_ZNK5ceres8internal13ResidualBlock28NumScratchDoublesForEvaluateEv(ptr noundef nonnull align 8 dereferenceable(28) %6)
  %.sroa.speculated = tail call i32 @llvm.smax.i32(i32 %.013, i32 %7)
  %8 = getelementptr inbounds nuw i8, ptr %.sroa.05.012, i64 8
  %.not = icmp eq ptr %8, %5
  br i1 %.not, label %._crit_edge, label %.lr.ph
}